target datalayout = "e-m:e-p270:32:32-p271:32:32-p272:64:64-i64:64-i128:128-f80:128-n8:16:32:64-S128"
target triple = "x86_64-unknown-linux-gnu"

%"class.YAML::EmitFromEvents" = type { %"class.YAML::EventHandler", ptr, %"class.std::stack" }
%"class.YAML::EventHandler" = type { ptr }
%"class.std::stack" = type { %"class.std::deque" }
%"class.std::deque" = type { %"class.std::_Deque_base" }
%"class.std::_Deque_base" = type { %"struct.std::_Deque_base<YAML::EmitFromEvents::State::value, std::allocator<YAML::EmitFromEvents::State::value>>::_Deque_impl" }
%"struct.std::_Deque_base<YAML::EmitFromEvents::State::value, std::allocator<YAML::EmitFromEvents::State::value>>::_Deque_impl" = type { %"struct.std::_Deque_base<YAML::EmitFromEvents::State::value, std::allocator<YAML::EmitFromEvents::State::value>>::_Deque_impl_data" }
%"struct.std::_Deque_base<YAML::EmitFromEvents::State::value, std::allocator<YAML::EmitFromEvents::State::value>>::_Deque_impl_data" = type { ptr, i64, %"struct.std::_Deque_iterator", %"struct.std::_Deque_iterator" }
%"struct.std::_Deque_iterator" = type { ptr, ptr, ptr, ptr }
%"class.YAML::NodeEvents" = type { %"class.std::shared_ptr", ptr, %"class.std::map" }
%"class.std::shared_ptr" = type { %"class.std::__shared_ptr" }
%"class.std::__shared_ptr" = type { ptr, %"class.std::__shared_count" }
%"class.std::__shared_count" = type { ptr }
%"class.std::map" = type { %"class.std::_Rb_tree" }
%"class.std::_Rb_tree" = type { %"struct.std::_Rb_tree<const YAML::detail::node_ref *, std::pair<const YAML::detail::node_ref *const, int>, std::_Select1st<std::pair<const YAML::detail::node_ref *const, int>>, std::less<const YAML::detail::node_ref *>>::_Rb_tree_impl" }
%"struct.std::_Rb_tree<const YAML::detail::node_ref *, std::pair<const YAML::detail::node_ref *const, int>, std::_Select1st<std::pair<const YAML::detail::node_ref *const, int>>, std::less<const YAML::detail::node_ref *>>::_Rb_tree_impl" = type { %"struct.std::_Rb_tree_key_compare", %"struct.std::_Rb_tree_header" }
%"struct.std::_Rb_tree_key_compare" = type { %"struct.std::less" }
%"struct.std::less" = type { i8 }
%"struct.std::_Rb_tree_header" = type { %"struct.std::_Rb_tree_node_base", i64 }
%"struct.std::_Rb_tree_node_base" = type { i32, ptr, ptr, ptr }

; Function Attrs: mustprogress uwtable
define noundef nonnull align 8 dereferenceable(72) ptr @_ZN4YAMLlsERNS_7EmitterERKNS_4NodeE(ptr noundef nonnull align 8 dereferenceable(72) %out, ptr noundef nonnull align 1 %node) #0 personality ptr @__gxx_personality_v0 {
entry:
  %out.addr = alloca ptr, align 8
  %node.addr = alloca ptr, align 8
  %emitFromEvents = alloca %"class.YAML::EmitFromEvents", align 8
  %events = alloca %"class.YAML::NodeEvents", align 8
  %exn.slot = alloca ptr, align 8
  %ehselector.slot = alloca i32, align 4
  store ptr %out, ptr %out.addr, align 8
  store ptr %node, ptr %node.addr, align 8
  %0 = load ptr, ptr %out.addr, align 8
  call void @_ZN4YAML14EmitFromEventsC1ERNS_7EmitterE(ptr noundef nonnull align 8 dereferenceable(96) %emitFromEvents, ptr noundef nonnull align 8 dereferenceable(72) %0)
  %1 = load ptr, ptr %node.addr, align 8
  invoke void @_ZN4YAML10NodeEventsC1ERKNS_4NodeE(ptr noundef nonnull align 8 dereferenceable(72) %events, ptr noundef nonnull align 1 %1)
          to label %invoke.cont unwind label %lpad

invoke.cont:                                      ; preds = %entry
  invoke void @_ZN4YAML10NodeEvents4EmitERNS_12EventHandlerE(ptr noundef nonnull align 8 dereferenceable(72) %events, ptr noundef nonnull align 8 dereferenceable(8) %emitFromEvents)
          to label %invoke.cont2 unwind label %lpad1

invoke.cont2:                                     ; preds = %invoke.cont
  %2 = load ptr, ptr %out.addr, align 8
  call void @_ZN4YAML10NodeEventsD2Ev(ptr noundef nonnull align 8 dereferenceable(72) %events) #6
  call void @_ZN4YAML14EmitFromEventsD2Ev(ptr noundef nonnull align 8 dereferenceable(96) %emitFromEvents) #6
  ret ptr %2

lpad:                                             ; preds = %entry
  %3 = landingpad { ptr, i32 }
          cleanup
  %4 = extractvalue { ptr, i32 } %3, 0
  store ptr %4, ptr %exn.slot, align 8
  %5 = extractvalue { ptr, i32 } %3, 1
  store i32 %5, ptr %ehselector.slot, align 4
  br label %ehcleanup

lpad1:                                            ; preds = %invoke.cont
  %6 = landingpad { ptr, i32 }
          cleanup
  %7 = extractvalue { ptr, i32 } %6, 0
  store ptr %7, ptr %exn.slot, align 8
  %8 = extractvalue { ptr, i32 } %6, 1
  store i32 %8, ptr %ehselector.slot, align 4
  call void @_ZN4YAML10NodeEventsD2Ev(ptr noundef nonnull align 8 dereferenceable(72) %events) #6
  br label %ehcleanup

ehcleanup:                                        ; preds = %lpad1, %lpad
  call void @_ZN4YAML14EmitFromEventsD2Ev(ptr noundef nonnull align 8 dereferenceable(96) %emitFromEvents) #6
  br label %eh.resume

eh.resume:                                        ; preds = %ehcleanup
  %exn = load ptr, ptr %exn.slot, align 8
  %sel = load i32, ptr %ehselector.slot, align 4
  %lpad.val = insertvalue { ptr, i32 } poison, ptr %exn, 0
  %lpad.val3 = insertvalue { ptr, i32 } %lpad.val, i32 %sel, 1
  resume { ptr, i32 } %lpad.val3
}