; Function Attrs: mustprogress uwtable
define noundef nonnull align 8 dereferenceable(72) ptr @_ZN4YAMLlsERNS_7EmitterERKNS_4NodeE(ptr noundef nonnull returned align 8 dereferenceable(72) %out, ptr noundef nonnull align 1 %node) local_unnamed_addr #0 personality ptr @__gxx_personality_v0 {
entry:
  %emitFromEvents = alloca %"class.YAML::EmitFromEvents", align 8
  %events = alloca %"class.YAML::NodeEvents", align 8
  call void @_ZN4YAML14EmitFromEventsC1ERNS_7EmitterE(ptr noundef nonnull align 8 dereferenceable(96) %emitFromEvents, ptr noundef nonnull align 8 dereferenceable(72) %out)
  invoke void @_ZN4YAML10NodeEventsC1ERKNS_4NodeE(ptr noundef nonnull align 8 dereferenceable(72) %events, ptr noundef nonnull align 1 %node)
          to label %invoke.cont unwind label %lpad

invoke.cont:                                      ; preds = %entry
  invoke void @_ZN4YAML10NodeEvents4EmitERNS_12EventHandlerE(ptr noundef nonnull align 8 dereferenceable(72) %events, ptr noundef nonnull align 8 dereferenceable(8) %emitFromEvents)
          to label %invoke.cont2 unwind label %lpad1

invoke.cont2:                                     ; preds = %invoke.cont
  %m_refCount.i = getelementptr inbounds i8, ptr %events, i64 24
  %_M_parent.i.i.i.i.i = getelementptr inbounds i8, ptr %events, i64 40
  %0 = load ptr, ptr %_M_parent.i.i.i.i.i, align 8
  invoke void @_ZNSt8_Rb_treeIPKN4YAML6detail8node_refESt4pairIKS4_iESt10_Select1stIS7_ESt4lessIS4_ESaIS7_EE8_M_eraseEPSt13_Rb_tree_nodeIS7_E(ptr noundef nonnull align 8 dereferenceable(48) %m_refCount.i, ptr noundef %0)
          to label %_ZNSt3mapIPKN4YAML6detail8node_refEiSt4lessIS4_ESaISt4pairIKS4_iEEED2Ev.exit.i unwind label %terminate.lpad.i.i.i

terminate.lpad.i.i.i:                             ; preds = %invoke.cont2
  %1 = landingpad { ptr, i32 }
          catch ptr null
  %2 = extractvalue { ptr, i32 } %1, 0
  call void @__clang_call_terminate(ptr %2) #6
  unreachable

_ZNSt3mapIPKN4YAML6detail8node_refEiSt4lessIS4_ESaISt4pairIKS4_iEEED2Ev.exit.i: ; preds = %invoke.cont2
  %_M_refcount.i.i.i = getelementptr inbounds i8, ptr %events, i64 8
  %3 = load ptr, ptr %_M_refcount.i.i.i, align 8
  %cmp.not.i.i.i.i = icmp eq ptr %3, null
  br i1 %cmp.not.i.i.i.i, label %_ZN4YAML10NodeEventsD2Ev.exit, label %if.then.i.i.i.i

if.then.i.i.i.i:                                  ; preds = %_ZNSt3mapIPKN4YAML6detail8node_refEiSt4lessIS4_ESaISt4pairIKS4_iEEED2Ev.exit.i
  %_M_use_count.i.i.i.i.i = getelementptr inbounds i8, ptr %3, i64 8
  %4 = load atomic i64, ptr %_M_use_count.i.i.i.i.i acquire, align 8
  %cmp.i.i.i.i.i = icmp eq i64 %4, 4294967297
  %5 = trunc i64 %4 to i32
  br i1 %cmp.i.i.i.i.i, label %if.then.i.i.i.i.i, label %if.end.i.i.i.i.i

if.then.i.i.i.i.i:                                ; preds = %if.then.i.i.i.i
  store i32 0, ptr %_M_use_count.i.i.i.i.i, align 8
  %_M_weak_count.i.i.i.i.i = getelementptr inbounds i8, ptr %3, i64 12
  store i32 0, ptr %_M_weak_count.i.i.i.i.i, align 4
  %vtable.i.i.i.i.i = load ptr, ptr %3, align 8
  %vfn.i.i.i.i.i = getelementptr inbounds i8, ptr %vtable.i.i.i.i.i, i64 16
  %6 = load ptr, ptr %vfn.i.i.i.i.i, align 8
  call void %6(ptr noundef nonnull align 8 dereferenceable(16) %3) #7
  br label %if.end8.sink.split.i.i.i.i.i

if.end.i.i.i.i.i:                                 ; preds = %if.then.i.i.i.i
  %7 = load i8, ptr @__libc_single_threaded, align 1
  %tobool.i.not.i.i.i.i.i = icmp eq i8 %7, 0
  br i1 %tobool.i.not.i.i.i.i.i, label %if.else.i.i.i.i.i.i, label %if.then.i.i.i.i.i.i

if.then.i.i.i.i.i.i:                              ; preds = %if.end.i.i.i.i.i
  %add.i.i.i.i.i.i = add nsw i32 %5, -1
  store i32 %add.i.i.i.i.i.i, ptr %_M_use_count.i.i.i.i.i, align 4
  br label %_ZN9__gnu_cxx27__exchange_and_add_dispatchEPii.exit.i.i.i.i.i

if.else.i.i.i.i.i.i:                              ; preds = %if.end.i.i.i.i.i
  %8 = atomicrmw volatile add ptr %_M_use_count.i.i.i.i.i, i32 -1 acq_rel, align 4
  br label %_ZN9__gnu_cxx27__exchange_and_add_dispatchEPii.exit.i.i.i.i.i

_ZN9__gnu_cxx27__exchange_and_add_dispatchEPii.exit.i.i.i.i.i: ; preds = %if.else.i.i.i.i.i.i, %if.then.i.i.i.i.i.i
  %retval.i.0.i.i.i.i.i = phi i32 [ %5, %if.then.i.i.i.i.i.i ], [ %8, %if.else.i.i.i.i.i.i ]
  %cmp6.i.i.i.i.i = icmp eq i32 %retval.i.0.i.i.i.i.i, 1
  br i1 %cmp6.i.i.i.i.i, label %if.then7.i.i.i.i.i, label %_ZN4YAML10NodeEventsD2Ev.exit

if.then7.i.i.i.i.i:                               ; preds = %_ZN9__gnu_cxx27__exchange_and_add_dispatchEPii.exit.i.i.i.i.i
  %vtable.i.i.i.i.i.i.i = load ptr, ptr %3, align 8
  %vfn.i.i.i.i.i.i.i = getelementptr inbounds i8, ptr %vtable.i.i.i.i.i.i.i, i64 16
  %9 = load ptr, ptr %vfn.i.i.i.i.i.i.i, align 8
  call void %9(ptr noundef nonnull align 8 dereferenceable(16) %3) #7
  %_M_weak_count.i.i.i.i.i.i.i = getelementptr inbounds i8, ptr %3, i64 12
  %10 = load i8, ptr @__libc_single_threaded, align 1
  %tobool.i.not.i.i.i.i.i.i.i = icmp eq i8 %10, 0
  br i1 %tobool.i.not.i.i.i.i.i.i.i, label %if.else.i.i.i.i.i.i.i.i, label %if.then.i.i.i.i.i.i.i.i

if.then.i.i.i.i.i.i.i.i:                          ; preds = %if.then7.i.i.i.i.i
  %11 = load i32, ptr %_M_weak_count.i.i.i.i.i.i.i, align 4
  %add.i.i.i.i.i.i.i.i = add nsw i32 %11, -1
  store i32 %add.i.i.i.i.i.i.i.i, ptr %_M_weak_count.i.i.i.i.i.i.i, align 4
  br label %_ZN9__gnu_cxx27__exchange_and_add_dispatchEPii.exit.i.i.i.i.i.i.i

if.else.i.i.i.i.i.i.i.i:                          ; preds = %if.then7.i.i.i.i.i
  %12 = atomicrmw volatile add ptr %_M_weak_count.i.i.i.i.i.i.i, i32 -1 acq_rel, align 4
  br label %_ZN9__gnu_cxx27__exchange_and_add_dispatchEPii.exit.i.i.i.i.i.i.i

_ZN9__gnu_cxx27__exchange_and_add_dispatchEPii.exit.i.i.i.i.i.i.i: ; preds = %if.else.i.i.i.i.i.i.i.i, %if.then.i.i.i.i.i.i.i.i
  %retval.i.0.i.i.i.i.i.i.i = phi i32 [ %11, %if.then.i.i.i.i.i.i.i.i ], [ %12, %if.else.i.i.i.i.i.i.i.i ]
  %cmp.i.i.i.i.i.i.i = icmp eq i32 %retval.i.0.i.i.i.i.i.i.i, 1
  br i1 %cmp.i.i.i.i.i.i.i, label %if.end8.sink.split.i.i.i.i.i, label %_ZN4YAML10NodeEventsD2Ev.exit

if.end8.sink.split.i.i.i.i.i:                     ; preds = %_ZN9__gnu_cxx27__exchange_and_add_dispatchEPii.exit.i.i.i.i.i.i.i, %if.then.i.i.i.i.i
  %vtable2.i.i.i.i.i.i.i = load ptr, ptr %3, align 8
  %vfn3.i.i.i.i.i.i.i = getelementptr inbounds i8, ptr %vtable2.i.i.i.i.i.i.i, i64 24
  %13 = load ptr, ptr %vfn3.i.i.i.i.i.i.i, align 8
  call void %13(ptr noundef nonnull align 8 dereferenceable(16) %3) #7
  br label %_ZN4YAML10NodeEventsD2Ev.exit

_ZN4YAML10NodeEventsD2Ev.exit:                    ; preds = %_ZNSt3mapIPKN4YAML6detail8node_refEiSt4lessIS4_ESaISt4pairIKS4_iEEED2Ev.exit.i, %_ZN9__gnu_cxx27__exchange_and_add_dispatchEPii.exit.i.i.i.i.i, %_ZN9__gnu_cxx27__exchange_and_add_dispatchEPii.exit.i.i.i.i.i.i.i, %if.end8.sink.split.i.i.i.i.i
  store ptr getelementptr inbounds ({ [14 x ptr] }, ptr @_ZTVN4YAML14EmitFromEventsE, i64 0, i32 0, i64 2), ptr %emitFromEvents, align 8
  %m_stateStack.i = getelementptr inbounds i8, ptr %emitFromEvents, i64 16
  %14 = load ptr, ptr %m_stateStack.i, align 8
  %tobool.not.i.i.i.i = icmp eq ptr %14, null
  br i1 %tobool.not.i.i.i.i, label %_ZN4YAML14EmitFromEventsD2Ev.exit, label %if.then.i.i.i.i3

if.then.i.i.i.i3:                                 ; preds = %_ZN4YAML10NodeEventsD2Ev.exit
  %_M_node5.i.i6.i.i.i = getelementptr inbounds i8, ptr %emitFromEvents, i64 88
  %_M_node5.i.i.i.i.i = getelementptr inbounds i8, ptr %emitFromEvents, i64 56
  %15 = load ptr, ptr %_M_node5.i.i.i.i.i, align 8
  %16 = load ptr, ptr %_M_node5.i.i6.i.i.i, align 8
  %add.ptr.i.i.i.i = getelementptr inbounds i8, ptr %16, i64 8
  %cmp3.i.i.i.i.i = icmp ult ptr %15, %add.ptr.i.i.i.i
  br i1 %cmp3.i.i.i.i.i, label %for.body.i.i.i.i.i, label %_ZNSt11_Deque_baseIN4YAML14EmitFromEvents5State5valueESaIS3_EE16_M_destroy_nodesEPPS3_S7_.exit.i.i.i.i

for.body.i.i.i.i.i:                               ; preds = %if.then.i.i.i.i3, %for.body.i.i.i.i.i
  %__n.04.i.i.i.i.i = phi ptr [ %incdec.ptr.i.i.i.i.i, %for.body.i.i.i.i.i ], [ %15, %if.then.i.i.i.i3 ]
  %17 = load ptr, ptr %__n.04.i.i.i.i.i, align 8
  call void @_ZdlPv(ptr noundef %17) #8
  %incdec.ptr.i.i.i.i.i = getelementptr inbounds i8, ptr %__n.04.i.i.i.i.i, i64 8
  %cmp.i.i.i.i.i4 = icmp ult ptr %__n.04.i.i.i.i.i, %16
  br i1 %cmp.i.i.i.i.i4, label %for.body.i.i.i.i.i, label %_ZNSt11_Deque_baseIN4YAML14EmitFromEvents5State5valueESaIS3_EE16_M_destroy_nodesEPPS3_S7_.exit.loopexit.i.i.i.i, !llvm.loop !4

_ZNSt11_Deque_baseIN4YAML14EmitFromEvents5State5valueESaIS3_EE16_M_destroy_nodesEPPS3_S7_.exit.loopexit.i.i.i.i: ; preds = %for.body.i.i.i.i.i
  %.pre.i.i.i.i = load ptr, ptr %m_stateStack.i, align 8
  br label %_ZNSt11_Deque_baseIN4YAML14EmitFromEvents5State5valueESaIS3_EE16_M_destroy_nodesEPPS3_S7_.exit.i.i.i.i

_ZNSt11_Deque_baseIN4YAML14EmitFromEvents5State5valueESaIS3_EE16_M_destroy_nodesEPPS3_S7_.exit.i.i.i.i: ; preds = %_ZNSt11_Deque_baseIN4YAML14EmitFromEvents5State5valueESaIS3_EE16_M_destroy_nodesEPPS3_S7_.exit.loopexit.i.i.i.i, %if.then.i.i.i.i3
  %18 = phi ptr [ %.pre.i.i.i.i, %_ZNSt11_Deque_baseIN4YAML14EmitFromEvents5State5valueESaIS3_EE16_M_destroy_nodesEPPS3_S7_.exit.loopexit.i.i.i.i ], [ %14, %if.then.i.i.i.i3 ]
  call void @_ZdlPv(ptr noundef %18) #8
  br label %_ZN4YAML14EmitFromEventsD2Ev.exit

_ZN4YAML14EmitFromEventsD2Ev.exit:                ; preds = %_ZN4YAML10NodeEventsD2Ev.exit, %_ZNSt11_Deque_baseIN4YAML14EmitFromEvents5State5valueESaIS3_EE16_M_destroy_nodesEPPS3_S7_.exit.i.i.i.i
  ret ptr %out

lpad:                                             ; preds = %entry
  %19 = landingpad { ptr, i32 }
          cleanup
  br label %ehcleanup

lpad1:                                            ; preds = %invoke.cont
  %20 = landingpad { ptr, i32 }
          cleanup
  call void @_ZN4YAML10NodeEventsD2Ev(ptr noundef nonnull align 8 dereferenceable(72) %events) #7
  br label %ehcleanup

ehcleanup:                                        ; preds = %lpad1, %lpad
  %.pn = phi { ptr, i32 } [ %20, %lpad1 ], [ %19, %lpad ]
  call void @_ZN4YAML14EmitFromEventsD2Ev(ptr noundef nonnull align 8 dereferenceable(96) %emitFromEvents) #7
  resume { ptr, i32 } %.pn
}